target datalayout = "e-m:e-p270:32:32-p271:32:32-p272:64:64-i64:64-i128:128-f80:128-n8:16:32:64-S128"
target triple = "x86_64-pc-linux-gnu"

; Function Attrs: nounwind uwtable
define internal i32 @truststore_set_host_etc(ptr noundef %0, ptr noundef %1) #0 {
  %3 = alloca i32, align 4
  %4 = alloca ptr, align 8
  %5 = alloca ptr, align 8
  %6 = alloca ptr, align 8
  %7 = alloca i32, align 4
  store ptr %0, ptr %4, align 8, !tbaa !61
  store ptr %1, ptr %5, align 8, !tbaa !11
  call void @llvm.lifetime.start.p0(i64 8, ptr %6) #11
  %8 = load ptr, ptr %4, align 8, !tbaa !61
  %9 = call ptr @X509_STORE_get0_param(ptr noundef %8)
  store ptr %9, ptr %6, align 8, !tbaa !19
  %10 = load ptr, ptr %6, align 8, !tbaa !19
  %11 = call i32 @X509_VERIFY_PARAM_set1_host(ptr noundef %10, ptr noundef null, i64 noundef 0)
  %12 = icmp ne i32 %11, 0
  br i1 %12, label %13, label %21

13:                                               ; preds = %2
  %14 = load ptr, ptr %6, align 8, !tbaa !19
  %15 = call i32 @X509_VERIFY_PARAM_set1_ip(ptr noundef %14, ptr noundef null, i64 noundef 0)
  %16 = icmp ne i32 %15, 0
  br i1 %16, label %17, label %21

17:                                               ; preds = %13
  %18 = load ptr, ptr %6, align 8, !tbaa !19
  %19 = call i32 @X509_VERIFY_PARAM_set1_email(ptr noundef %18, ptr noundef null, i64 noundef 0)
  %20 = icmp ne i32 %19, 0
  br i1 %20, label %22, label %21

21:                                               ; preds = %17, %13, %2
  store i32 0, ptr %3, align 4
  store i32 1, ptr %7, align 4
  br label %39

22:                                               ; preds = %17
  %23 = load ptr, ptr %6, align 8, !tbaa !19
  call void @X509_VERIFY_PARAM_set_hostflags(ptr noundef %23, i32 noundef 5)
  %24 = load ptr, ptr %5, align 8, !tbaa !11
  %25 = icmp ne ptr %24, null
  br i1 %25, label %26, label %31

26:                                               ; preds = %22
  %27 = load ptr, ptr %6, align 8, !tbaa !19
  %28 = load ptr, ptr %5, align 8, !tbaa !11
  %29 = call i32 @X509_VERIFY_PARAM_set1_ip_asc(ptr noundef %27, ptr noundef %28)
  %30 = icmp ne i32 %29, 0
  br i1 %30, label %36, label %31

31:                                               ; preds = %26, %22
  %32 = load ptr, ptr %6, align 8, !tbaa !19
  %33 = load ptr, ptr %5, align 8, !tbaa !11
  %34 = call i32 @X509_VERIFY_PARAM_set1_host(ptr noundef %32, ptr noundef %33, i64 noundef 0)
  %35 = icmp ne i32 %34, 0
  br label %36

36:                                               ; preds = %31, %26
  %37 = phi i1 [ true, %26 ], [ %35, %31 ]
  %38 = zext i1 %37 to i32
  store i32 %38, ptr %3, align 4
  store i32 1, ptr %7, align 4
  br label %39

39:                                               ; preds = %36, %21
  call void @llvm.lifetime.end.p0(i64 8, ptr %6) #11
  %40 = load i32, ptr %3, align 4
  ret i32 %40
}