; Function Attrs: nounwind uwtable
define internal fastcc range(i32 0, 2) i32 @truststore_set_host_etc(ptr noundef nonnull %0, ptr noundef %1) unnamed_addr #0 {
  %3 = tail call ptr @X509_STORE_get0_param(ptr noundef nonnull %0) #12
  %4 = tail call i32 @X509_VERIFY_PARAM_set1_host(ptr noundef %3, ptr noundef null, i64 noundef 0) #12
  %.not = icmp eq i32 %4, 0
  br i1 %.not, label %16, label %5

5:                                                ; preds = %2
  %6 = tail call i32 @X509_VERIFY_PARAM_set1_ip(ptr noundef %3, ptr noundef null, i64 noundef 0) #12
  %.not11 = icmp eq i32 %6, 0
  br i1 %.not11, label %16, label %7

7:                                                ; preds = %5
  %8 = tail call i32 @X509_VERIFY_PARAM_set1_email(ptr noundef %3, ptr noundef null, i64 noundef 0) #12
  %.not12 = icmp eq i32 %8, 0
  br i1 %.not12, label %16, label %9

9:                                                ; preds = %7
  tail call void @X509_VERIFY_PARAM_set_hostflags(ptr noundef %3, i32 noundef 5) #12
  %.not13 = icmp eq ptr %1, null
  br i1 %.not13, label %12, label %10

10:                                               ; preds = %9
  %11 = tail call i32 @X509_VERIFY_PARAM_set1_ip_asc(ptr noundef %3, ptr noundef nonnull %1) #12
  %.not14 = icmp eq i32 %11, 0
  br i1 %.not14, label %12, label %16

12:                                               ; preds = %10, %9
  %13 = tail call i32 @X509_VERIFY_PARAM_set1_host(ptr noundef %3, ptr noundef %1, i64 noundef 0) #12
  %14 = icmp ne i32 %13, 0
  %15 = zext i1 %14 to i32
  br label %16

16:                                               ; preds = %10, %12, %2, %5, %7
  %.0 = phi i32 [ 0, %7 ], [ 0, %5 ], [ 0, %2 ], [ 1, %10 ], [ %15, %12 ]
  ret i32 %.0
}